target datalayout = "e-m:e-p270:32:32-p271:32:32-p272:64:64-i64:64-i128:128-f80:128-n8:16:32:64-S128"
target triple = "x86_64-pc-linux-gnu"

@_ZL8registry = internal global ptr null, align 8

; Function Attrs: mustprogress uwtable
define void @_ZN6icu_7714Transliterator17_registerInstanceEPS0_(ptr noundef %0) #1 align 2 {
  %2 = alloca ptr, align 8
  %3 = alloca i32, align 4
  store ptr %0, ptr %2, align 8, !tbaa !23
  call void @llvm.lifetime.start.p0(i64 4, ptr %3) #15
  store i32 0, ptr %3, align 4, !tbaa !15
  %4 = load ptr, ptr @_ZL8registry, align 8, !tbaa !86
  %5 = load ptr, ptr %2, align 8, !tbaa !23
  call void @_ZN6icu_7722TransliteratorRegistry3putEPNS_14TransliteratorEaR10UErrorCode(ptr noundef nonnull align 8 dereferenceable(312) %4, ptr noundef %5, i8 noundef signext 1, ptr noundef nonnull align 4 dereferenceable(4) %3)
  call void @llvm.lifetime.end.p0(i64 4, ptr %3) #15
  ret void
}