; Function Attrs: mustprogress uwtable
define void @_ZN6icu_7714Transliterator17_registerInstanceEPS0_(ptr noundef %0) local_unnamed_addr #1 align 2 {
  %2 = alloca i32, align 4
  call void @llvm.lifetime.start.p0(i64 4, ptr nonnull %2) #21
  store i32 0, ptr %2, align 4, !tbaa !13
  %3 = load ptr, ptr @_ZL8registry, align 8, !tbaa !49
  call void @_ZN6icu_7722TransliteratorRegistry3putEPNS_14TransliteratorEaR10UErrorCode(ptr noundef nonnull align 8 dereferenceable(312) %3, ptr noundef %0, i8 noundef signext 1, ptr noundef nonnull align 4 dereferenceable(4) %2)
  call void @llvm.lifetime.end.p0(i64 4, ptr nonnull %2) #21
  ret void
}